
bin\Release\lab5.elf:     file format elf32-avr

Sections:
Idx Name          Size      VMA       LMA       File off  Algn
  0 .data         00000016  00800100  00000344  000003d8  2**0
                  CONTENTS, ALLOC, LOAD, DATA
  1 .text         00000344  00000000  00000000  00000094  2**1
                  CONTENTS, ALLOC, LOAD, READONLY, CODE
  2 .bss          00000001  00800116  00800116  000003ee  2**0
                  ALLOC

Disassembly of section .text:

00000000 <__vectors>:
   0:	0c 94 34 00 	jmp	0x68	; 0x68 <__ctors_end>
   4:	0c 94 51 00 	jmp	0xa2	; 0xa2 <__bad_interrupt>
   8:	0c 94 51 00 	jmp	0xa2	; 0xa2 <__bad_interrupt>
   c:	0c 94 51 00 	jmp	0xa2	; 0xa2 <__bad_interrupt>
  10:	0c 94 51 00 	jmp	0xa2	; 0xa2 <__bad_interrupt>
  14:	0c 94 51 00 	jmp	0xa2	; 0xa2 <__bad_interrupt>
  18:	0c 94 51 00 	jmp	0xa2	; 0xa2 <__bad_interrupt>
  1c:	0c 94 51 00 	jmp	0xa2	; 0xa2 <__bad_interrupt>
  20:	0c 94 51 00 	jmp	0xa2	; 0xa2 <__bad_interrupt>
  24:	0c 94 51 00 	jmp	0xa2	; 0xa2 <__bad_interrupt>
  28:	0c 94 51 00 	jmp	0xa2	; 0xa2 <__bad_interrupt>
  2c:	0c 94 51 00 	jmp	0xa2	; 0xa2 <__bad_interrupt>
  30:	0c 94 51 00 	jmp	0xa2	; 0xa2 <__bad_interrupt>
  34:	0c 94 51 00 	jmp	0xa2	; 0xa2 <__bad_interrupt>
  38:	0c 94 51 00 	jmp	0xa2	; 0xa2 <__bad_interrupt>
  3c:	0c 94 51 00 	jmp	0xa2	; 0xa2 <__bad_interrupt>
  40:	0c 94 51 00 	jmp	0xa2	; 0xa2 <__bad_interrupt>
  44:	0c 94 51 00 	jmp	0xa2	; 0xa2 <__bad_interrupt>
  48:	0c 94 51 00 	jmp	0xa2	; 0xa2 <__bad_interrupt>
  4c:	0c 94 51 00 	jmp	0xa2	; 0xa2 <__bad_interrupt>
  50:	0c 94 51 00 	jmp	0xa2	; 0xa2 <__bad_interrupt>
  54:	0c 94 51 00 	jmp	0xa2	; 0xa2 <__bad_interrupt>
  58:	0c 94 51 00 	jmp	0xa2	; 0xa2 <__bad_interrupt>
  5c:	0c 94 51 00 	jmp	0xa2	; 0xa2 <__bad_interrupt>
  60:	0c 94 51 00 	jmp	0xa2	; 0xa2 <__bad_interrupt>
  64:	0c 94 51 00 	jmp	0xa2	; 0xa2 <__bad_interrupt>

00000068 <__ctors_end>:
  68:	11 24       	eor	r1, r1
  6a:	1f be       	out	0x3f, r1	; 63
  6c:	cf ef       	ldi	r28, 0xFF	; 255
  6e:	d8 e0       	ldi	r29, 0x08	; 8
  70:	de bf       	out	0x3e, r29	; 62
  72:	cd bf       	out	0x3d, r28	; 61

00000074 <__do_copy_data>:
  74:	11 e0       	ldi	r17, 0x01	; 1
  76:	a0 e0       	ldi	r26, 0x00	; 0
  78:	b1 e0       	ldi	r27, 0x01	; 1
  7a:	e4 e4       	ldi	r30, 0x44	; 68
  7c:	f3 e0       	ldi	r31, 0x03	; 3
  7e:	02 c0       	rjmp	.+4      	; 0x84 <.do_copy_data_start>

00000080 <.do_copy_data_loop>:
  80:	05 90       	lpm	r0, Z+
  82:	0d 92       	st	X+, r0

00000084 <.do_copy_data_start>:
  84:	a6 31       	cpi	r26, 0x16	; 22
  86:	b1 07       	cpc	r27, r17
  88:	d9 f7       	brne	.-10     	; 0x80 <.do_copy_data_loop>

0000008a <__do_clear_bss>:
  8a:	11 e0       	ldi	r17, 0x01	; 1
  8c:	a6 e1       	ldi	r26, 0x16	; 22
  8e:	b1 e0       	ldi	r27, 0x01	; 1
  90:	01 c0       	rjmp	.+2      	; 0x94 <.do_clear_bss_start>

00000092 <.do_clear_bss_loop>:
  92:	1d 92       	st	X+, r1

00000094 <.do_clear_bss_start>:
  94:	a7 31       	cpi	r26, 0x17	; 23
  96:	b1 07       	cpc	r27, r17
  98:	e1 f7       	brne	.-8      	; 0x92 <.do_clear_bss_loop>
  9a:	0e 94 e8 00 	call	0x1d0	; 0x1d0 <main>
  9e:	0c 94 a0 01 	jmp	0x340	; 0x340 <_exit>

000000a2 <__bad_interrupt>:
  a2:	0c 94 00 00 	jmp	0	; 0x0 <__vectors>

000000a6 <LCD_SetMarker>:
  a6:	88 23       	and	r24, r24
  a8:	21 f0       	breq	.+8      	; 0xb2 <LCD_SetMarker+0xc>
  aa:	80 e8       	ldi	r24, 0x80	; 128
  ac:	80 93 16 01 	sts	0x0116, r24
  b0:	08 95       	ret
  b2:	10 92 16 01 	sts	0x0116, r1
  b6:	08 95       	ret

000000b8 <LCD_WriteInst>:
  b8:	98 2f       	mov	r25, r24
  ba:	92 95       	swap	r25
  bc:	9f 70       	andi	r25, 0x0F	; 15
  be:	28 2f       	mov	r18, r24
  c0:	2f 70       	andi	r18, 0x0F	; 15
  c2:	80 91 16 01 	lds	r24, 0x0116
  c6:	88 23       	and	r24, r24
  c8:	11 f0       	breq	.+4      	; 0xce <LCD_WriteInst+0x16>
  ca:	90 68       	ori	r25, 0x80	; 128
  cc:	20 68       	ori	r18, 0x80	; 128
  ce:	95 b9       	out	0x05, r25	; 5
  d0:	95 b9       	out	0x05, r25	; 5
  d2:	89 2f       	mov	r24, r25
  d4:	80 64       	ori	r24, 0x40	; 64
  d6:	85 b9       	out	0x05, r24	; 5
  d8:	85 b9       	out	0x05, r24	; 5
  da:	95 b9       	out	0x05, r25	; 5
  dc:	95 b9       	out	0x05, r25	; 5
  de:	25 b9       	out	0x05, r18	; 5
  e0:	25 b9       	out	0x05, r18	; 5
  e2:	82 2f       	mov	r24, r18
  e4:	80 64       	ori	r24, 0x40	; 64
  e6:	85 b9       	out	0x05, r24	; 5
  e8:	85 b9       	out	0x05, r24	; 5
  ea:	25 b9       	out	0x05, r18	; 5
  ec:	25 b9       	out	0x05, r18	; 5
  ee:	15 b8       	out	0x05, r1	; 5
  f0:	8a e6       	ldi	r24, 0x6A	; 106
  f2:	8a 95       	dec	r24
  f4:	f1 f7       	brne	.-4      	; 0xf2 <LCD_WriteInst+0x3a>
  f6:	08 95       	ret

000000f8 <LCD_WriteData>:
  f8:	48 2f       	mov	r20, r24
  fa:	42 95       	swap	r20
  fc:	4f 70       	andi	r20, 0x0F	; 15
  fe:	94 2f       	mov	r25, r20
 100:	90 61       	ori	r25, 0x10	; 16
 102:	38 2f       	mov	r19, r24
 104:	3f 70       	andi	r19, 0x0F	; 15
 106:	23 2f       	mov	r18, r19
 108:	20 61       	ori	r18, 0x10	; 16
 10a:	80 91 16 01 	lds	r24, 0x0116
 10e:	88 23       	and	r24, r24
 110:	21 f0       	breq	.+8      	; 0x11a <LCD_WriteData+0x22>
 112:	94 2f       	mov	r25, r20
 114:	90 69       	ori	r25, 0x90	; 144
 116:	23 2f       	mov	r18, r19
 118:	20 69       	ori	r18, 0x90	; 144
 11a:	95 b9       	out	0x05, r25	; 5
 11c:	95 b9       	out	0x05, r25	; 5
 11e:	89 2f       	mov	r24, r25
 120:	80 64       	ori	r24, 0x40	; 64
 122:	85 b9       	out	0x05, r24	; 5
 124:	85 b9       	out	0x05, r24	; 5
 126:	95 b9       	out	0x05, r25	; 5
 128:	95 b9       	out	0x05, r25	; 5
 12a:	25 b9       	out	0x05, r18	; 5
 12c:	25 b9       	out	0x05, r18	; 5
 12e:	82 2f       	mov	r24, r18
 130:	80 64       	ori	r24, 0x40	; 64
 132:	85 b9       	out	0x05, r24	; 5
 134:	85 b9       	out	0x05, r24	; 5
 136:	25 b9       	out	0x05, r18	; 5
 138:	25 b9       	out	0x05, r18	; 5
 13a:	15 b8       	out	0x05, r1	; 5
 13c:	85 e8       	ldi	r24, 0x85	; 133
 13e:	8a 95       	dec	r24
 140:	f1 f7       	brne	.-4      	; 0x13e <LCD_WriteData+0x46>
 142:	08 95       	ret

00000144 <LCD_Clear>:
 144:	0f 93       	push	r16
 146:	1f 93       	push	r17
 148:	81 e0       	ldi	r24, 0x01	; 1
 14a:	0e 94 5c 00 	call	0xb8	; 0xb8 <LCD_WriteInst>
 14e:	00 ea       	ldi	r16, 0xA0	; 160
 150:	1f e0       	ldi	r17, 0x0F	; 15
 152:	c8 01       	movw	r24, r16
 154:	01 97       	sbiw	r24, 0x01	; 1
 156:	f1 f7       	brne	.-4      	; 0x154 <LCD_Clear+0x10>
 158:	82 e0       	ldi	r24, 0x02	; 2
 15a:	0e 94 5c 00 	call	0xb8	; 0xb8 <LCD_WriteInst>
 15e:	c8 01       	movw	r24, r16
 160:	01 97       	sbiw	r24, 0x01	; 1
 162:	f1 f7       	brne	.-4      	; 0x160 <LCD_Clear+0x1c>
 164:	1f 91       	pop	r17
 166:	0f 91       	pop	r16
 168:	08 95       	ret

0000016a <LCD_Init>:
 16a:	80 91 16 01 	lds	r24, 0x0116
 16e:	98 2f       	mov	r25, r24
 170:	92 60       	ori	r25, 0x02	; 2
 172:	95 b9       	out	0x05, r25	; 5
 174:	95 b9       	out	0x05, r25	; 5
 176:	82 64       	ori	r24, 0x42	; 66
 178:	85 b9       	out	0x05, r24	; 5
 17a:	85 b9       	out	0x05, r24	; 5
 17c:	95 b9       	out	0x05, r25	; 5
 17e:	95 b9       	out	0x05, r25	; 5
 180:	15 b8       	out	0x05, r1	; 5
 182:	85 e8       	ldi	r24, 0x85	; 133
 184:	8a 95       	dec	r24
 186:	f1 f7       	brne	.-4      	; 0x184 <LCD_Init+0x1a>
 188:	88 e2       	ldi	r24, 0x28	; 40
 18a:	0e 94 5c 00 	call	0xb8	; 0xb8 <LCD_WriteInst>
 18e:	86 e0       	ldi	r24, 0x06	; 6
 190:	0e 94 5c 00 	call	0xb8	; 0xb8 <LCD_WriteInst>
 194:	8c e0       	ldi	r24, 0x0C	; 12
 196:	0e 94 5c 00 	call	0xb8	; 0xb8 <LCD_WriteInst>
 19a:	0e 94 a2 00 	call	0x144	; 0x144 <LCD_Clear>
 19e:	08 95       	ret

000001a0 <LCD_MoveCursor>:
 1a0:	81 30       	cpi	r24, 0x01	; 1
 1a2:	11 f0       	breq	.+4      	; 0x1a8 <LCD_MoveCursor+0x8>
 1a4:	80 ec       	ldi	r24, 0xC0	; 192
 1a6:	01 c0       	rjmp	.+2      	; 0x1aa <LCD_MoveCursor+0xa>
 1a8:	80 e8       	ldi	r24, 0x80	; 128
 1aa:	61 50       	subi	r22, 0x01	; 1
 1ac:	6f 70       	andi	r22, 0x0F	; 15
 1ae:	86 2b       	or	r24, r22
 1b0:	0e 94 5c 00 	call	0xb8	; 0xb8 <LCD_WriteInst>
 1b4:	08 95       	ret

000001b6 <LCD_WriteString>:
 1b6:	cf 93       	push	r28
 1b8:	df 93       	push	r29
 1ba:	ec 01       	movw	r28, r24
 1bc:	03 c0       	rjmp	.+6      	; 0x1c4 <LCD_WriteString+0xe>
 1be:	0e 94 7c 00 	call	0xf8	; 0xf8 <LCD_WriteData>
 1c2:	21 96       	adiw	r28, 0x01	; 1
 1c4:	88 81       	ld	r24, Y
 1c6:	88 23       	and	r24, r24
 1c8:	d1 f7       	brne	.-12     	; 0x1be <LCD_WriteString+0x8>
 1ca:	df 91       	pop	r29
 1cc:	cf 91       	pop	r28
 1ce:	08 95       	ret

000001d0 <main>:
 1d0:	ef 92       	push	r14
 1d2:	ff 92       	push	r15
 1d4:	0f 93       	push	r16
 1d6:	1f 93       	push	r17
 1d8:	df 93       	push	r29
 1da:	cf 93       	push	r28
 1dc:	cd b7       	in	r28, 0x3d	; 61
 1de:	de b7       	in	r29, 0x3e	; 62
 1e0:	60 97       	sbiw	r28, 0x10	; 16
 1e2:	0f b6       	in	r0, 0x3f	; 63
 1e4:	f8 94       	cli
 1e6:	de bf       	out	0x3e, r29	; 62
 1e8:	0f be       	out	0x3f, r0	; 63
 1ea:	cd bf       	out	0x3d, r28	; 61
 1ec:	84 b1       	in	r24, 0x04	; 4
 1ee:	8f ef       	ldi	r24, 0xFF	; 255
 1f0:	84 b9       	out	0x04, r24	; 4
 1f2:	8c ef       	ldi	r24, 0xFC	; 252
 1f4:	8a b9       	out	0x0a, r24	; 10
 1f6:	17 b8       	out	0x07, r1	; 7
 1f8:	10 92 64 00 	sts	0x0064, r1
 1fc:	10 92 7b 00 	sts	0x007B, r1
 200:	83 e0       	ldi	r24, 0x03	; 3
 202:	80 93 7e 00 	sts	0x007E, r24
 206:	80 91 7a 00 	lds	r24, 0x007A
 20a:	80 68       	ori	r24, 0x80	; 128
 20c:	80 93 7a 00 	sts	0x007A, r24
 210:	80 91 7a 00 	lds	r24, 0x007A
 214:	86 60       	ori	r24, 0x06	; 6
 216:	80 93 7a 00 	sts	0x007A, r24
 21a:	80 91 7a 00 	lds	r24, 0x007A
 21e:	80 93 7a 00 	sts	0x007A, r24
 222:	80 91 7c 00 	lds	r24, 0x007C
 226:	8f 73       	andi	r24, 0x3F	; 63
 228:	80 93 7c 00 	sts	0x007C, r24
 22c:	80 91 7c 00 	lds	r24, 0x007C
 230:	80 62       	ori	r24, 0x20	; 32
 232:	80 93 7c 00 	sts	0x007C, r24
 236:	80 91 7c 00 	lds	r24, 0x007C
 23a:	81 60       	ori	r24, 0x01	; 1
 23c:	80 93 7c 00 	sts	0x007C, r24
 240:	89 b1       	in	r24, 0x09	; 9
 242:	0e 94 b5 00 	call	0x16a	; 0x16a <LCD_Init>
 246:	0e 94 a2 00 	call	0x144	; 0x144 <LCD_Clear>
 24a:	81 e0       	ldi	r24, 0x01	; 1
 24c:	61 e0       	ldi	r22, 0x01	; 1
 24e:	0e 94 d0 00 	call	0x1a0	; 0x1a0 <LCD_MoveCursor>
 252:	80 e0       	ldi	r24, 0x00	; 0
 254:	91 e0       	ldi	r25, 0x01	; 1
 256:	0e 94 db 00 	call	0x1b6	; 0x1b6 <LCD_WriteString>
 25a:	82 e0       	ldi	r24, 0x02	; 2
 25c:	61 e0       	ldi	r22, 0x01	; 1
 25e:	0e 94 d0 00 	call	0x1a0	; 0x1a0 <LCD_MoveCursor>
 262:	8c e0       	ldi	r24, 0x0C	; 12
 264:	91 e0       	ldi	r25, 0x01	; 1
 266:	0e 94 db 00 	call	0x1b6	; 0x1b6 <LCD_WriteString>
 26a:	8e 01       	movw	r16, r28
 26c:	0f 5f       	subi	r16, 0xFF	; 255
 26e:	1f 4f       	sbci	r17, 0xFF	; 255
 270:	8c e3       	ldi	r24, 0x3C	; 60
 272:	e8 2e       	mov	r14, r24
 274:	85 e0       	ldi	r24, 0x05	; 5
 276:	f8 2e       	mov	r15, r24
 278:	5c 9a       	sbi	0x0b, 4	; 11
 27a:	89 b1       	in	r24, 0x09	; 9
 27c:	80 91 7a 00 	lds	r24, 0x007A
 280:	80 64       	ori	r24, 0x40	; 64
 282:	80 93 7a 00 	sts	0x007A, r24
 286:	80 91 7a 00 	lds	r24, 0x007A
 28a:	86 fd       	sbrc	r24, 6
 28c:	fc cf       	rjmp	.-8      	; 0x286 <main+0xb6>
 28e:	40 91 79 00 	lds	r20, 0x0079
 292:	45 b9       	out	0x05, r20	; 5
 294:	c8 01       	movw	r24, r16
 296:	65 e1       	ldi	r22, 0x15	; 21
 298:	71 e0       	ldi	r23, 0x01	; 1
 29a:	0e 94 5b 01 	call	0x2b6	; 0x2b6 <PrintByte>
 29e:	82 e0       	ldi	r24, 0x02	; 2
 2a0:	67 e0       	ldi	r22, 0x07	; 7
 2a2:	0e 94 d0 00 	call	0x1a0	; 0x1a0 <LCD_MoveCursor>
 2a6:	c8 01       	movw	r24, r16
 2a8:	0e 94 db 00 	call	0x1b6	; 0x1b6 <LCD_WriteString>
 2ac:	5c 98       	cbi	0x0b, 4	; 11
 2ae:	c7 01       	movw	r24, r14
 2b0:	01 97       	sbiw	r24, 0x01	; 1
 2b2:	f1 f7       	brne	.-4      	; 0x2b0 <main+0xe0>
 2b4:	e1 cf       	rjmp	.-62     	; 0x278 <main+0xa8>

000002b6 <PrintByte>:
 2b6:	dc 01       	movw	r26, r24
 2b8:	fb 01       	movw	r30, r22
 2ba:	02 c0       	rjmp	.+4      	; 0x2c0 <PrintByte+0xa>
 2bc:	8d 93       	st	X+, r24
 2be:	31 96       	adiw	r30, 0x01	; 1
 2c0:	80 81       	ld	r24, Z
 2c2:	88 23       	and	r24, r24
 2c4:	d9 f7       	brne	.-10     	; 0x2bc <PrintByte+0x6>
 2c6:	44 36       	cpi	r20, 0x64	; 100
 2c8:	20 f4       	brcc	.+8      	; 0x2d2 <PrintByte+0x1c>
 2ca:	80 e2       	ldi	r24, 0x20	; 32
 2cc:	8c 93       	st	X, r24
 2ce:	20 e0       	ldi	r18, 0x00	; 0
 2d0:	0e c0       	rjmp	.+28     	; 0x2ee <PrintByte+0x38>
 2d2:	84 2f       	mov	r24, r20
 2d4:	64 e6       	ldi	r22, 0x64	; 100
 2d6:	0e 94 94 01 	call	0x328	; 0x328 <__udivmodqi4>
 2da:	28 2f       	mov	r18, r24
 2dc:	20 5d       	subi	r18, 0xD0	; 208
 2de:	2c 93       	st	X, r18
 2e0:	20 53       	subi	r18, 0x30	; 48
 2e2:	8c e9       	ldi	r24, 0x9C	; 156
 2e4:	9f ef       	ldi	r25, 0xFF	; 255
 2e6:	28 9f       	mul	r18, r24
 2e8:	80 2d       	mov	r24, r0
 2ea:	11 24       	eor	r1, r1
 2ec:	48 0f       	add	r20, r24
 2ee:	fd 01       	movw	r30, r26
 2f0:	31 96       	adiw	r30, 0x01	; 1
 2f2:	4a 30       	cpi	r20, 0x0A	; 10
 2f4:	38 f4       	brcc	.+14     	; 0x304 <PrintByte+0x4e>
 2f6:	22 23       	and	r18, r18
 2f8:	11 f4       	brne	.+4      	; 0x2fe <PrintByte+0x48>
 2fa:	80 e2       	ldi	r24, 0x20	; 32
 2fc:	01 c0       	rjmp	.+2      	; 0x300 <PrintByte+0x4a>
 2fe:	80 e3       	ldi	r24, 0x30	; 48
 300:	80 83       	st	Z, r24
 302:	0e c0       	rjmp	.+28     	; 0x320 <PrintByte+0x6a>
 304:	84 2f       	mov	r24, r20
 306:	6a e0       	ldi	r22, 0x0A	; 10
 308:	0e 94 94 01 	call	0x328	; 0x328 <__udivmodqi4>
 30c:	80 5d       	subi	r24, 0xD0	; 208
 30e:	11 96       	adiw	r26, 0x01	; 1
 310:	8c 93       	st	X, r24
 312:	80 53       	subi	r24, 0x30	; 48
 314:	26 ef       	ldi	r18, 0xF6	; 246
 316:	3f ef       	ldi	r19, 0xFF	; 255
 318:	82 9f       	mul	r24, r18
 31a:	80 2d       	mov	r24, r0
 31c:	11 24       	eor	r1, r1
 31e:	48 0f       	add	r20, r24
 320:	40 5d       	subi	r20, 0xD0	; 208
 322:	41 83       	std	Z+1, r20	; 0x01
 324:	12 82       	std	Z+2, r1	; 0x02
 326:	08 95       	ret

00000328 <__udivmodqi4>:
 328:	99 1b       	sub	r25, r25
 32a:	79 e0       	ldi	r23, 0x09	; 9
 32c:	04 c0       	rjmp	.+8      	; 0x336 <__udivmodqi4_ep>

0000032e <__udivmodqi4_loop>:
 32e:	99 1f       	adc	r25, r25
 330:	96 17       	cp	r25, r22
 332:	08 f0       	brcs	.+2      	; 0x336 <__udivmodqi4_ep>
 334:	96 1b       	sub	r25, r22

00000336 <__udivmodqi4_ep>:
 336:	88 1f       	adc	r24, r24
 338:	7a 95       	dec	r23
 33a:	c9 f7       	brne	.-14     	; 0x32e <__udivmodqi4_loop>
 33c:	80 95       	com	r24
 33e:	08 95       	ret

00000340 <_exit>:
 340:	f8 94       	cli

00000342 <__stop_program>:
 342:	ff cf       	rjmp	.-2      	; 0x342 <__stop_program>
